target datalayout = "e-m:e-p270:32:32-p271:32:32-p272:64:64-i64:64-i128:128-f80:128-n8:16:32:64-S128"
target triple = "x86_64-pc-linux-gnu"

%"class.std::__cxx11::basic_string" = type { %"struct.std::__cxx11::basic_string<char>::_Alloc_hider", i64, %union.anon.0 }
%"struct.std::__cxx11::basic_string<char>::_Alloc_hider" = type { ptr }
%union.anon.0 = type { i64, [8 x i8] }

@_ZN11OpenImageIO6v3_1_012_GLOBAL__N_15c_locE = internal global ptr null, align 8

; Function Attrs: mustprogress nounwind uwtable
define noundef float @_ZN11OpenImageIO6v3_1_07Strutil6strtofEPKcPPc(ptr noundef %0, ptr noundef %1) #6 {
  %3 = alloca ptr, align 8
  %4 = alloca ptr, align 8
  store ptr %0, ptr %3, align 8, !tbaa !10
  store ptr %1, ptr %4, align 8, !tbaa !83
  %5 = load ptr, ptr %3, align 8, !tbaa !10
  %6 = load ptr, ptr %4, align 8, !tbaa !83
  %7 = load ptr, ptr @_ZN11OpenImageIO6v3_1_012_GLOBAL__N_15c_locE, align 8, !tbaa !101
  %8 = call float @strtof_l(ptr noundef %5, ptr noundef %6, ptr noundef %7) #3
  ret float %8
}

; Function Attrs: mustprogress nounwind uwtable
define available_externally noundef ptr @_ZNKSt7__cxx1112basic_stringIcSt11char_traitsIcESaIcEE7_M_dataEv(ptr noundef nonnull align 8 dereferenceable(32) %0) #6 align 2 {
  %2 = alloca ptr, align 8
  store ptr %0, ptr %2, align 8, !tbaa !137
  %3 = load ptr, ptr %2, align 8
  %4 = getelementptr inbounds nuw %"class.std::__cxx11::basic_string", ptr %3, i32 0, i32 0
  %5 = getelementptr inbounds nuw %"struct.std::__cxx11::basic_string<char>::_Alloc_hider", ptr %4, i32 0, i32 0
  %6 = load ptr, ptr %5, align 8, !tbaa !333
  ret ptr %6
}

; Function Attrs: mustprogress nounwind uwtable
define noundef float @_ZN11OpenImageIO6v3_1_07Strutil4stofEPKcPm(ptr noundef %0, ptr noundef %1) #6 {
  %3 = alloca float, align 4
  %4 = alloca ptr, align 8
  %5 = alloca ptr, align 8
  %6 = alloca ptr, align 8
  %7 = alloca float, align 4
  %8 = alloca i32, align 4
  store ptr %0, ptr %4, align 8, !tbaa !10
  store ptr %1, ptr %5, align 8, !tbaa !131
  %9 = load ptr, ptr %4, align 8, !tbaa !10
  %10 = icmp ne ptr %9, null
  br i1 %10, label %11, label %33

11:                                               ; preds = %2
  call void @llvm.lifetime.start.p0(i64 8, ptr %6) #3
  call void @llvm.lifetime.start.p0(i64 4, ptr %7) #3
  %12 = load ptr, ptr %4, align 8, !tbaa !10
  %13 = call noundef float @_ZN11OpenImageIO6v3_1_07Strutil6strtofEPKcPPc(ptr noundef %12, ptr noundef %6) #3
  store float %13, ptr %7, align 4, !tbaa !251
  %14 = load ptr, ptr %6, align 8, !tbaa !10
  %15 = load ptr, ptr %4, align 8, !tbaa !10
  %16 = icmp ne ptr %14, %15
  br i1 %16, label %17, label %29

17:                                               ; preds = %11
  %18 = load ptr, ptr %5, align 8, !tbaa !131
  %19 = icmp ne ptr %18, null
  br i1 %19, label %20, label %27

20:                                               ; preds = %17
  %21 = load ptr, ptr %6, align 8, !tbaa !10
  %22 = load ptr, ptr %4, align 8, !tbaa !10
  %23 = ptrtoint ptr %21 to i64
  %24 = ptrtoint ptr %22 to i64
  %25 = sub i64 %23, %24
  %26 = load ptr, ptr %5, align 8, !tbaa !131
  store i64 %25, ptr %26, align 8, !tbaa !108
  br label %27

27:                                               ; preds = %20, %17
  %28 = load float, ptr %7, align 4, !tbaa !251
  store float %28, ptr %3, align 4
  store i32 1, ptr %8, align 4
  br label %30

29:                                               ; preds = %11
  store i32 0, ptr %8, align 4
  br label %30

30:                                               ; preds = %29, %27
  call void @llvm.lifetime.end.p0(i64 4, ptr %7) #3
  call void @llvm.lifetime.end.p0(i64 8, ptr %6) #3
  %31 = load i32, ptr %8, align 4
  switch i32 %31, label %41 [
    i32 0, label %32
    i32 1, label %39
  ]

32:                                               ; preds = %30
  br label %33

33:                                               ; preds = %32, %2
  %34 = load ptr, ptr %5, align 8, !tbaa !131
  %35 = icmp ne ptr %34, null
  br i1 %35, label %36, label %38

36:                                               ; preds = %33
  %37 = load ptr, ptr %5, align 8, !tbaa !131
  store i64 0, ptr %37, align 8, !tbaa !108
  br label %38

38:                                               ; preds = %36, %33
  store float 0.000000e+00, ptr %3, align 4
  br label %39

39:                                               ; preds = %38, %30
  %40 = load float, ptr %3, align 4
  ret float %40

41:                                               ; preds = %30
  unreachable
}

; Function Attrs: mustprogress nounwind uwtable
define available_externally noundef ptr @_ZNKSt7__cxx1112basic_stringIcSt11char_traitsIcESaIcEE5c_strEv(ptr noundef nonnull align 8 dereferenceable(32) %0) #6 align 2 {
  %2 = alloca ptr, align 8
  store ptr %0, ptr %2, align 8, !tbaa !137
  %3 = load ptr, ptr %2, align 8
  %4 = call noundef ptr @_ZNKSt7__cxx1112basic_stringIcSt11char_traitsIcESaIcEE7_M_dataEv(ptr noundef nonnull align 8 dereferenceable(32) %3)
  ret ptr %4
}

; Function Attrs: mustprogress nounwind uwtable
define noundef float @_ZN11OpenImageIO6v3_1_07Strutil4stofERKNSt7__cxx1112basic_stringIcSt11char_traitsIcESaIcEEEPm(ptr noundef nonnull align 8 dereferenceable(32) %0, ptr noundef %1) #6 {
  %3 = alloca ptr, align 8
  %4 = alloca ptr, align 8
  store ptr %0, ptr %3, align 8, !tbaa !137
  store ptr %1, ptr %4, align 8, !tbaa !131
  %5 = load ptr, ptr %3, align 8, !tbaa !137
  %6 = call noundef ptr @_ZNKSt7__cxx1112basic_stringIcSt11char_traitsIcESaIcEE5c_strEv(ptr noundef nonnull align 8 dereferenceable(32) %5) #3
  %7 = load ptr, ptr %4, align 8, !tbaa !131
  %8 = call noundef float @_ZN11OpenImageIO6v3_1_07Strutil4stofEPKcPm(ptr noundef %6, ptr noundef %7)
  ret float %8
}