; Function Attrs: mustprogress nounwind uwtable
define noundef float @_ZN11OpenImageIO6v3_1_07Strutil4stofERKNSt7__cxx1112basic_stringIcSt11char_traitsIcESaIcEEEPm(ptr noundef nonnull readonly align 8 captures(none) dereferenceable(32) %0, ptr noundef writeonly %1) local_unnamed_addr #15 {
  %3 = alloca ptr, align 8
  %4 = load ptr, ptr %0, align 8, !tbaa !90
  %.not.i = icmp eq ptr %4, null
  br i1 %.not.i, label %14, label %5

5:                                                ; preds = %2
  call void @llvm.lifetime.start.p0(i64 8, ptr nonnull %3) #16
  %6 = load ptr, ptr @_ZN11OpenImageIO6v3_1_012_GLOBAL__N_15c_locE, align 8, !tbaa !232
  %7 = call noundef float @strtof_l(ptr noundef nonnull %4, ptr noundef nonnull %3, ptr noundef %6) #16
  %8 = load ptr, ptr %3, align 8, !tbaa !13
  %.not15.i = icmp ne ptr %8, %4
  %.not16.i = icmp ne ptr %1, null
  %or.cond.not.i = and i1 %.not16.i, %.not15.i
  br i1 %or.cond.not.i, label %9, label %13

9:                                                ; preds = %5
  %10 = ptrtoint ptr %8 to i64
  %11 = ptrtoint ptr %4 to i64
  %12 = sub i64 %10, %11
  store i64 %12, ptr %1, align 8, !tbaa !86
  br label %13

13:                                               ; preds = %9, %5
  call void @llvm.lifetime.end.p0(i64 8, ptr nonnull %3) #16
  br i1 %.not15.i, label %_ZN11OpenImageIO6v3_1_07Strutil4stofEPKcPm.exit, label %14

14:                                               ; preds = %13, %2
  %.not17.i = icmp eq ptr %1, null
  br i1 %.not17.i, label %_ZN11OpenImageIO6v3_1_07Strutil4stofEPKcPm.exit, label %15

15:                                               ; preds = %14
  store i64 0, ptr %1, align 8, !tbaa !86
  br label %_ZN11OpenImageIO6v3_1_07Strutil4stofEPKcPm.exit

_ZN11OpenImageIO6v3_1_07Strutil4stofEPKcPm.exit:  ; preds = %13, %14, %15
  %.1.i = phi float [ %7, %13 ], [ 0.000000e+00, %15 ], [ 0.000000e+00, %14 ]
  ret float %.1.i
}